	.section	__TEXT,__text,regular,pure_instructions
	.build_version macos, 11, 0	sdk_version 11, 3
	.intel_syntax noprefix
	.file	1 "/Users/kapsyproductivity/projects/a_swift_stack_overflow/code/stack2.swift"
	.globl	_main
	.p2align	4, 0x90
_main:
Lfunc_begin0:
	.loc	1 0 0
	.cfi_startproc
	push	rbp
	.cfi_def_cfa_offset 16
	.cfi_offset rbp, -16
	mov	rbp, rsp
	.cfi_def_cfa_register rbp
	sub	rsp, 16
	xor	eax, eax
	mov	ecx, eax
	mov	dword ptr [rbp - 4], edi
Ltmp0:
	.loc	1 5 9 prologue_end
	mov	rdi, rcx
	mov	qword ptr [rbp - 16], rsi
	call	_$s6stack24rec2yS2iF
	xor	edx, edx
	mov	qword ptr [rip + _$s6stack21xSivp], rax
	mov	eax, edx
	add	rsp, 16
	pop	rbp
	ret
Ltmp1:
Lfunc_end0:
	.cfi_endproc

	.private_extern	_$s6stack24rec2yS2iF
	.globl	_$s6stack24rec2yS2iF
	.p2align	4, 0x90
_$s6stack24rec2yS2iF:
Lfunc_begin1:
	.loc	1 1 0
	.cfi_startproc
	push	rbp
	.cfi_def_cfa_offset 16
	.cfi_offset rbp, -16
	mov	rbp, rsp
	.cfi_def_cfa_register rbp
	sub	rsp, 32
	xor	esi, esi
	lea	rax, [rbp - 8]
Ltmp2:
	mov	qword ptr [rbp - 16], rdi
	mov	rdi, rax
	mov	edx, 8
	call	_memset
Ltmp3:
	mov	rax, qword ptr [rbp - 16]
Ltmp4:
	.loc	1 0 0 prologue_end
	mov	qword ptr [rbp - 8], rax
Ltmp5:
	.loc	1 2 19
	inc	rax
	seto	cl
	test	cl, 1
	mov	qword ptr [rbp - 24], rax
	jne	LBB1_2
	.loc	1 0 19 is_stmt 0
	mov	rdi, qword ptr [rbp - 24]
	.loc	1 2 12
	call	_$s6stack24rec2yS2iF
	.loc	1 2 5
	add	rsp, 32
	pop	rbp
	ret
LBB1_2:
Ltmp6:
	.loc	1 0 0
	ud2
Ltmp7:
Lfunc_end1:
	.cfi_endproc

	.private_extern	_$s6stack21xSivp
	.globl	_$s6stack21xSivp
.zerofill __DATA,__common,_$s6stack21xSivp,8,3
	.section	__TEXT,__swift5_entry,regular,no_dead_strip
	.p2align	2
l_entry_point:
	.long	_main-l_entry_point

	.private_extern	___swift_reflection_version
	.section	__TEXT,__const
	.globl	___swift_reflection_version
	.weak_definition	___swift_reflection_version
	.p2align	1
___swift_reflection_version:
	.short	3

	.no_dead_strip	_main
	.no_dead_strip	l_entry_point
	.no_dead_strip	___swift_reflection_version
	.linker_option "-lswiftSwiftOnoneSupport"
	.linker_option "-lswiftCore"
	.linker_option "-lobjc"
	.section	__DATA,__objc_imageinfo,regular,no_dead_strip
L_OBJC_IMAGE_INFO:
	.long	0
	.long	84150080
