	.section	__TEXT,__text,regular,pure_instructions
	.build_version macos, 11, 0	sdk_version 11, 3
	.intel_syntax noprefix
	.file	1 "/Users/kapsyproductivity/projects/a_swift_stack_overflow/code/stack6.swift"
	.globl	_main
	.p2align	4, 0x90
_main:
Lfunc_begin0:
	.loc	1 0 0
	.cfi_startproc
	push	rbp
	.cfi_def_cfa_offset 16
	.cfi_offset rbp, -16
	mov	rbp, rsp
	.cfi_def_cfa_register rbp
Ltmp0:
	push	r13
	sub	rsp, 456
	.cfi_offset r13, -24
	.loc	1 20 9 prologue_end
	mov	qword ptr [rip + _$s6stack61xSivp], 0
Ltmp1:
LBB0_1:
	.loc	1 0 9 is_stmt 0
	lea	rax, [rip + _$s6stack61xSivp]
	xor	ecx, ecx
Ltmp2:
	.loc	1 21 7 is_stmt 1
	mov	rdi, rax
	lea	rsi, [rbp - 32]
	mov	edx, 32
	call	_swift_beginAccess
	mov	rax, qword ptr [rip + _$s6stack61xSivp]
	lea	rdi, [rbp - 32]
	mov	qword ptr [rbp - 168], rax
	call	_swift_endAccess
	mov	r13, qword ptr [rip + _$sSiN@GOTPCREL]
	.loc	1 21 14 is_stmt 0
	call	_$sSZsE8isSignedSbvgZSi_Tgq5
	test	al, 1
	jne	LBB0_2
	jmp	LBB0_3
LBB0_2:
	.loc	1 0 14
	xor	eax, eax
	mov	byte ptr [rbp - 169], al
	.loc	1 21 14
	jmp	LBB0_4
LBB0_3:
	.loc	1 0 14
	xor	eax, eax
	mov	byte ptr [rbp - 169], al
	.loc	1 21 14
	jmp	LBB0_4
LBB0_4:
	.loc	1 0 14
	mov	al, byte ptr [rbp - 169]
	mov	r13, qword ptr [rip + _$sSiN@GOTPCREL]
	mov	byte ptr [rbp - 170], al
	.loc	1 21 14
	call	_$sSZsE8isSignedSbvgZSi_Tgq5
	test	al, 1
	jne	LBB0_5
	jmp	LBB0_6
LBB0_5:
	mov	al, 1
	mov	byte ptr [rbp - 171], al
	jmp	LBB0_7
LBB0_6:
	.loc	1 0 14
	xor	eax, eax
	mov	byte ptr [rbp - 171], al
	.loc	1 21 14
	jmp	LBB0_7
LBB0_7:
	.loc	1 0 14
	mov	al, byte ptr [rbp - 171]
	mov	cl, byte ptr [rbp - 170]
	.loc	1 21 14
	xor	cl, al
	xor	cl, 1
	xor	cl, -1
	test	cl, 1
	mov	byte ptr [rbp - 172], al
	jne	LBB0_8
	jmp	LBB0_9
LBB0_8:
	.loc	1 0 14
	mov	al, byte ptr [rbp - 170]
	mov	byte ptr [rbp - 173], al
	.loc	1 21 14
	jmp	LBB0_10
LBB0_9:
	jmp	LBB0_56
LBB0_10:
	.loc	1 0 14
	mov	al, byte ptr [rbp - 173]
	.loc	1 21 14
	test	al, 1
	jne	LBB0_11
	jmp	LBB0_12
LBB0_11:
	mov	rax, -64
	mov	qword ptr [rbp - 184], rax
	jmp	LBB0_13
LBB0_12:
	.loc	1 0 14
	mov	r13, qword ptr [rip + _$sSiN@GOTPCREL]
	.loc	1 21 14
	call	_$sSZsE8isSignedSbvgZSi_Tgq5
	test	al, 1
	jne	LBB0_32
	jmp	LBB0_33
LBB0_13:
	.loc	1 0 14
	mov	rax, qword ptr [rbp - 184]
	mov	r13, qword ptr [rip + _$sSiN@GOTPCREL]
	mov	qword ptr [rbp - 192], rax
	.loc	1 21 14
	call	_$sSZsE8isSignedSbvgZSi_Tgq5
	test	al, 1
	jne	LBB0_14
	jmp	LBB0_17
LBB0_14:
	jmp	LBB0_15
LBB0_15:
	jmp	LBB0_16
LBB0_16:
	mov	qword ptr [rbp - 112], 0
	jmp	LBB0_18
LBB0_17:
	mov	qword ptr [rbp - 112], 0
LBB0_18:
	.loc	1 0 14
	mov	rax, qword ptr [rbp - 192]
	.loc	1 21 14
	cmp	rax, 0
	setl	cl
	xor	cl, -1
	test	cl, 1
	jne	LBB0_19
	jmp	LBB0_20
LBB0_19:
	.loc	1 0 14
	mov	rax, qword ptr [rbp - 192]
	.loc	1 21 14
	cmp	rax, 64
	setl	cl
	test	cl, 1
	jne	LBB0_21
	jmp	LBB0_24
LBB0_20:
	mov	rax, -64
	mov	rcx, qword ptr [rbp - 192]
	cmp	rax, rcx
	setl	dl
	xor	dl, -1
	test	dl, 1
	jne	LBB0_27
	jmp	LBB0_28
LBB0_21:
	jmp	LBB0_22
LBB0_22:
	jmp	LBB0_23
LBB0_23:
	.loc	1 0 14
	mov	rax, qword ptr [rbp - 192]
	.loc	1 21 14
	and	rax, 63
	mov	rcx, rax
	mov	eax, 1
	shl	rax, cl
	mov	qword ptr [rbp - 104], rax
	jmp	LBB0_25
LBB0_24:
	mov	qword ptr [rbp - 104], 0
LBB0_25:
	mov	rax, qword ptr [rbp - 104]
	.loc	1 21 20
	mov	ecx, 8
	imul	rax, rcx
	seto	dl
	test	dl, 1
	mov	qword ptr [rbp - 200], rax
	jne	LBB0_70
	.loc	1 0 20
	mov	rax, qword ptr [rbp - 168]
	mov	rcx, qword ptr [rbp - 200]
	.loc	1 21 9
	cmp	rax, rcx
	jl	LBB0_66
	jmp	LBB0_68
LBB0_27:
	.loc	1 21 14
	mov	rax, qword ptr [rbp - 112]
	mov	qword ptr [rbp - 104], rax
	jmp	LBB0_25
LBB0_28:
	.loc	1 0 14
	xor	eax, eax
	mov	ecx, eax
	mov	rdx, qword ptr [rbp - 192]
	.loc	1 21 14
	sub	rcx, rdx
	seto	sil
	test	sil, 1
	mov	qword ptr [rbp - 208], rcx
	jne	LBB0_69
	jmp	LBB0_30
LBB0_30:
	jmp	LBB0_31
LBB0_31:
	.loc	1 0 14
	mov	rax, qword ptr [rbp - 208]
	.loc	1 21 14
	and	rax, 63
	mov	rcx, rax
	mov	eax, 1
	sar	rax, cl
	mov	qword ptr [rbp - 104], rax
	jmp	LBB0_25
LBB0_32:
	.loc	1 0 14
	xor	eax, eax
	mov	byte ptr [rbp - 209], al
	.loc	1 21 14
	jmp	LBB0_34
LBB0_33:
	.loc	1 0 14
	xor	eax, eax
	mov	byte ptr [rbp - 209], al
	.loc	1 21 14
	jmp	LBB0_34
LBB0_34:
	.loc	1 0 14
	mov	al, byte ptr [rbp - 209]
	mov	r13, qword ptr [rip + _$sSiN@GOTPCREL]
	mov	byte ptr [rbp - 210], al
	.loc	1 21 14
	call	_$sSZsE8isSignedSbvgZSi_Tgq5
	test	al, 1
	jne	LBB0_35
	jmp	LBB0_36
LBB0_35:
	.loc	1 0 14
	xor	eax, eax
	mov	byte ptr [rbp - 211], al
	.loc	1 21 14
	jmp	LBB0_37
LBB0_36:
	.loc	1 0 14
	xor	eax, eax
	mov	byte ptr [rbp - 211], al
	.loc	1 21 14
	jmp	LBB0_37
LBB0_37:
	.loc	1 0 14
	mov	al, byte ptr [rbp - 211]
	mov	cl, byte ptr [rbp - 210]
	.loc	1 21 14
	xor	cl, al
	xor	cl, 1
	xor	cl, -1
	test	cl, 1
	mov	byte ptr [rbp - 212], al
	jne	LBB0_38
	jmp	LBB0_39
LBB0_38:
	.loc	1 0 14
	mov	al, byte ptr [rbp - 210]
	mov	byte ptr [rbp - 213], al
	.loc	1 21 14
	jmp	LBB0_40
LBB0_39:
	jmp	LBB0_44
LBB0_40:
	.loc	1 0 14
	mov	al, byte ptr [rbp - 213]
	.loc	1 21 14
	test	al, 1
	jne	LBB0_41
	jmp	LBB0_42
LBB0_41:
	mov	eax, 64
	mov	qword ptr [rbp - 224], rax
	jmp	LBB0_43
LBB0_42:
	mov	qword ptr [rbp - 96], 20
	lea	rax, [rbp - 88]
	lea	rcx, [rbp - 96]
	mov	qword ptr [rbp - 232], rax
	mov	qword ptr [rbp - 240], rcx
	call	_$sS2is17FixedWidthIntegersWl
	mov	qword ptr [rbp - 248], rax
	call	_$sS2iSZsWl
	mov	qword ptr [rbp - 256], rax
	call	_$sS2iSzsWl
	mov	rcx, qword ptr [rip + _$sSiN@GOTPCREL]
	mov	rdx, qword ptr [rbp - 232]
	mov	qword ptr [rbp - 264], rax
	mov	rax, rdx
	mov	rdi, qword ptr [rbp - 240]
	mov	rsi, rcx
	mov	rdx, rcx
	mov	r8, qword ptr [rbp - 248]
	mov	qword ptr [rbp - 272], rcx
	mov	rcx, r8
	mov	r8, qword ptr [rbp - 256]
	mov	r9, qword ptr [rbp - 264]
	mov	r13, qword ptr [rbp - 272]
	call	_$sSZss17FixedWidthIntegerRzrlEyxqd__cSzRd__lufC
	mov	rax, qword ptr [rbp - 88]
	mov	qword ptr [rbp - 224], rax
LBB0_43:
	.loc	1 0 14
	mov	rax, qword ptr [rbp - 224]
	mov	qword ptr [rbp - 184], rax
	.loc	1 21 14
	jmp	LBB0_13
LBB0_44:
	jmp	LBB0_45
LBB0_45:
	jmp	LBB0_46
LBB0_46:
	mov	qword ptr [rbp - 80], 20
	lea	rax, [rbp - 72]
	lea	rcx, [rbp - 80]
	mov	qword ptr [rbp - 280], rax
	mov	qword ptr [rbp - 288], rcx
	call	_$sS2is17FixedWidthIntegersWl
	mov	qword ptr [rbp - 296], rax
	call	_$sS2iSzsWl
	mov	rcx, qword ptr [rip + _$sSiN@GOTPCREL]
	mov	rdx, qword ptr [rbp - 280]
	mov	qword ptr [rbp - 304], rax
	mov	rax, rdx
	mov	rdi, qword ptr [rbp - 288]
	mov	rsi, rcx
	mov	rdx, rcx
	mov	r8, qword ptr [rbp - 296]
	mov	qword ptr [rbp - 312], rcx
	mov	rcx, r8
	mov	r8, qword ptr [rbp - 304]
	mov	r13, qword ptr [rbp - 312]
	call	_$ss17FixedWidthIntegerPsE18truncatingIfNeededxqd___tcSzRd__lufC
	cmp	qword ptr [rbp - 72], 0
	setl	r9b
	mov	rax, qword ptr [rbp - 72]
	mov	byte ptr [rbp - 313], r9b
	mov	qword ptr [rbp - 328], rax
	jmp	LBB0_48
LBB0_48:
	.loc	1 0 14
	mov	rax, qword ptr [rbp - 328]
	.loc	1 21 14
	cmp	rax, 20
	jne	LBB0_50
	.loc	1 0 14
	mov	al, byte ptr [rbp - 212]
	mov	cl, byte ptr [rbp - 313]
	.loc	1 21 14
	xor	al, cl
	xor	al, 1
	mov	byte ptr [rbp - 329], al
	jmp	LBB0_51
LBB0_50:
	.loc	1 0 14
	xor	eax, eax
	mov	byte ptr [rbp - 329], al
	.loc	1 21 14
	jmp	LBB0_51
LBB0_51:
	.loc	1 0 14
	mov	al, byte ptr [rbp - 329]
	.loc	1 21 14
	test	al, 1
	jne	LBB0_52
	jmp	LBB0_53
LBB0_52:
	mov	eax, 64
	cmp	rax, qword ptr [rbp - 72]
	setl	cl
	mov	byte ptr [rbp - 213], cl
	jmp	LBB0_40
LBB0_53:
	jmp	LBB0_54
LBB0_54:
	jmp	LBB0_55
LBB0_55:
	.loc	1 0 14
	xor	eax, eax
	mov	byte ptr [rbp - 213], al
	.loc	1 21 14
	jmp	LBB0_40
LBB0_56:
	jmp	LBB0_57
LBB0_57:
	jmp	LBB0_58
LBB0_58:
	jmp	LBB0_59
LBB0_59:
	jmp	LBB0_60
LBB0_60:
	mov	qword ptr [rbp - 48], -64
	lea	rax, [rbp - 40]
	lea	rcx, [rbp - 48]
	mov	qword ptr [rbp - 344], rax
	mov	qword ptr [rbp - 352], rcx
	call	_$sS2is17FixedWidthIntegersWl
	mov	qword ptr [rbp - 360], rax
	call	_$sS2iSzsWl
	mov	rcx, qword ptr [rip + _$sSiN@GOTPCREL]
	mov	rdx, qword ptr [rbp - 344]
	mov	qword ptr [rbp - 368], rax
	mov	rax, rdx
	mov	rdi, qword ptr [rbp - 352]
	mov	rsi, rcx
	mov	rdx, rcx
	mov	r8, qword ptr [rbp - 360]
	mov	qword ptr [rbp - 376], rcx
	mov	rcx, r8
	mov	r8, qword ptr [rbp - 368]
	mov	r13, qword ptr [rbp - 376]
	call	_$ss17FixedWidthIntegerPsE18truncatingIfNeededxqd___tcSzRd__lufC
	mov	rax, qword ptr [rbp - 40]
	cmp	rax, -64
	jne	LBB0_62
	.loc	1 0 14
	mov	al, byte ptr [rbp - 172]
	mov	byte ptr [rbp - 377], al
	.loc	1 21 14
	jmp	LBB0_63
LBB0_62:
	.loc	1 0 14
	xor	eax, eax
	mov	byte ptr [rbp - 377], al
	.loc	1 21 14
	jmp	LBB0_63
LBB0_63:
	.loc	1 0 14
	mov	al, byte ptr [rbp - 377]
	.loc	1 21 14
	test	al, 1
	jne	LBB0_64
	jmp	LBB0_65
LBB0_64:
	.loc	1 0 14
	xor	eax, eax
	mov	byte ptr [rbp - 173], al
	.loc	1 21 14
	jmp	LBB0_10
LBB0_65:
	.loc	1 0 14
	mov	rax, qword ptr [rip + _$sSiN@GOTPCREL]
	.loc	1 21 14
	mov	qword ptr [rbp - 64], 20
	lea	rcx, [rbp - 56]
	lea	rdx, [rbp - 64]
	mov	qword ptr [rbp - 392], rax
	mov	rax, rcx
	mov	rdi, rdx
	mov	rsi, qword ptr [rbp - 392]
	mov	rdx, qword ptr [rbp - 392]
	mov	rcx, qword ptr [rbp - 360]
	mov	r8, qword ptr [rbp - 368]
	mov	r13, qword ptr [rbp - 392]
	call	_$ss17FixedWidthIntegerPsE18truncatingIfNeededxqd___tcSzRd__lufC
	cmp	qword ptr [rbp - 56], -64
	setl	r9b
	mov	byte ptr [rbp - 173], r9b
	jmp	LBB0_10
LBB0_66:
	.loc	1 0 14
	lea	rax, [rip + _$s6stack61xSivp]
	xor	ecx, ecx
Ltmp3:
	.loc	1 22 5 is_stmt 1
	mov	rdi, rax
	lea	rsi, [rbp - 160]
	mov	edx, 33
	call	_swift_beginAccess
	.loc	1 22 6 is_stmt 0
	mov	rax, qword ptr [rip + _$s6stack61xSivp]
	inc	rax
	seto	r8b
	test	r8b, 1
	mov	qword ptr [rbp - 400], rax
	jne	LBB0_71
	.loc	1 0 6
	mov	rax, qword ptr [rbp - 400]
	.loc	1 22 6
	mov	qword ptr [rip + _$s6stack61xSivp], rax
	lea	rdi, [rbp - 160]
	call	_swift_endAccess
Ltmp4:
	.loc	1 23 1 is_stmt 1
	jmp	LBB0_1
Ltmp5:
LBB0_68:
	.loc	1 0 1 is_stmt 0
	mov	rax, qword ptr [rip + _$sypN@GOTPCREL]
	add	rax, 8
Ltmp6:
	.loc	1 25 7 is_stmt 1
	mov	edi, 1
	mov	rsi, rax
	call	_$ss27_allocateUninitializedArrayySayxG_BptBwlF
	lea	rcx, [rip + _$s6stack61xSivp]
	xor	r8d, r8d
	mov	esi, r8d
	mov	rdi, rcx
	lea	rcx, [rbp - 136]
	mov	qword ptr [rbp - 408], rsi
	mov	rsi, rcx
	mov	ecx, 32
	mov	qword ptr [rbp - 416], rdx
	mov	rdx, rcx
	mov	rcx, qword ptr [rbp - 408]
	mov	qword ptr [rbp - 424], rax
	call	_swift_beginAccess
	mov	rax, qword ptr [rip + _$s6stack61xSivp]
	lea	rdi, [rbp - 136]
	mov	qword ptr [rbp - 432], rax
	call	_swift_endAccess
	mov	rax, qword ptr [rip + _$sypN@GOTPCREL]
	add	rax, 8
	mov	rcx, qword ptr [rip + _$sSiN@GOTPCREL]
	mov	rdx, qword ptr [rbp - 416]
	mov	qword ptr [rdx + 24], rcx
	mov	rcx, qword ptr [rbp - 432]
	mov	qword ptr [rdx], rcx
	mov	rdi, qword ptr [rbp - 424]
	mov	rsi, rax
	call	_$ss27_finalizeUninitializedArrayySayxGABnlF
	mov	qword ptr [rbp - 440], rax
	.loc	1 25 6 is_stmt 0
	call	_$ss5print_9separator10terminatoryypd_S2StFfA0_
	mov	qword ptr [rbp - 448], rax
	mov	qword ptr [rbp - 456], rdx
	call	_$ss5print_9separator10terminatoryypd_S2StFfA1_
	mov	rdi, qword ptr [rbp - 440]
	mov	rsi, qword ptr [rbp - 448]
	mov	rcx, qword ptr [rbp - 456]
	mov	qword ptr [rbp - 464], rdx
	.loc	1 25 1
	mov	rdx, rcx
	mov	rcx, rax
	mov	r8, qword ptr [rbp - 464]
	call	_$ss5print_9separator10terminatoryypd_S2StF
	mov	rdi, qword ptr [rbp - 464]
	call	_swift_bridgeObjectRelease
	mov	rdi, qword ptr [rbp - 456]
	call	_swift_bridgeObjectRelease
	mov	rdi, qword ptr [rbp - 440]
	call	_swift_bridgeObjectRelease
	xor	eax, eax
	add	rsp, 456
	pop	r13
	pop	rbp
	ret
Ltmp7:
LBB0_69:
	.loc	1 0 0
	ud2
Ltmp8:
LBB0_70:
	ud2
Ltmp9:
LBB0_71:
	ud2
Ltmp10:
Lfunc_end0:
	.cfi_endproc

	.private_extern	_$ss27_finalizeUninitializedArrayySayxGABnlF
	.globl	_$ss27_finalizeUninitializedArrayySayxGABnlF
	.weak_definition	_$ss27_finalizeUninitializedArrayySayxGABnlF
	.p2align	4, 0x90
_$ss27_finalizeUninitializedArrayySayxGABnlF:
Lfunc_begin1:
	.file	2 "<compiler-generated>"
	.loc	2 0 0 is_stmt 1
	.cfi_startproc
	push	rbp
	.cfi_def_cfa_offset 16
	.cfi_offset rbp, -16
	mov	rbp, rsp
	.cfi_def_cfa_register rbp
	push	r13
	sub	rsp, 24
	.cfi_offset r13, -24
	mov	qword ptr [rbp - 16], rsi
Ltmp11:
	mov	qword ptr [rbp - 24], rdi
	xor	eax, eax
	mov	edi, eax
	call	_$sSaMa
	lea	r13, [rbp - 24]
	mov	rdi, rax
	mov	qword ptr [rbp - 32], rdx
	call	_$sSa12_endMutationyyF
	mov	rax, qword ptr [rbp - 24]
	add	rsp, 24
	pop	r13
	pop	rbp
	ret
Ltmp12:
Lfunc_end1:
	.cfi_endproc

	.private_extern	_$ss5print_9separator10terminatoryypd_S2StFfA0_
	.globl	_$ss5print_9separator10terminatoryypd_S2StFfA0_
	.weak_definition	_$ss5print_9separator10terminatoryypd_S2StFfA0_
	.p2align	4, 0x90
_$ss5print_9separator10terminatoryypd_S2StFfA0_:
Lfunc_begin2:
	.loc	2 0 0
	.cfi_startproc
	push	rbp
	.cfi_def_cfa_offset 16
	.cfi_offset rbp, -16
	mov	rbp, rsp
	.cfi_def_cfa_register rbp
Ltmp13:
	lea	rdi, [rip + L___unnamed_1]
	mov	esi, 1
	mov	edx, 1
	call	_$sSS21_builtinStringLiteral17utf8CodeUnitCount7isASCIISSBp_BwBi1_tcfC
	pop	rbp
	ret
Ltmp14:
Lfunc_end2:
	.cfi_endproc

	.private_extern	_$ss5print_9separator10terminatoryypd_S2StFfA1_
	.globl	_$ss5print_9separator10terminatoryypd_S2StFfA1_
	.weak_definition	_$ss5print_9separator10terminatoryypd_S2StFfA1_
	.p2align	4, 0x90
_$ss5print_9separator10terminatoryypd_S2StFfA1_:
Lfunc_begin3:
	.loc	2 0 0
	.cfi_startproc
	push	rbp
	.cfi_def_cfa_offset 16
	.cfi_offset rbp, -16
	mov	rbp, rsp
	.cfi_def_cfa_register rbp
Ltmp15:
	lea	rdi, [rip + L___unnamed_2]
	mov	esi, 1
	mov	edx, 1
	call	_$sSS21_builtinStringLiteral17utf8CodeUnitCount7isASCIISSBp_BwBi1_tcfC
	pop	rbp
	ret
Ltmp16:
Lfunc_end3:
	.cfi_endproc

	.private_extern	_$sSZsE8isSignedSbvgZSi_Tgq5
	.globl	_$sSZsE8isSignedSbvgZSi_Tgq5
	.weak_definition	_$sSZsE8isSignedSbvgZSi_Tgq5
	.p2align	4, 0x90
_$sSZsE8isSignedSbvgZSi_Tgq5:
Lfunc_begin4:
	.loc	2 0 0
	.cfi_startproc
	push	rbp
	.cfi_def_cfa_offset 16
	.cfi_offset rbp, -16
	mov	rbp, rsp
	.cfi_def_cfa_register rbp
	mov	al, 1
Ltmp17:
	pop	rbp
	ret
Ltmp18:
Lfunc_end4:
	.cfi_endproc

	.private_extern	_$sS2is17FixedWidthIntegersWl
	.globl	_$sS2is17FixedWidthIntegersWl
	.weak_definition	_$sS2is17FixedWidthIntegersWl
	.p2align	4, 0x90
_$sS2is17FixedWidthIntegersWl:
Lfunc_begin5:
	.loc	2 0 0
	.cfi_startproc
	push	rax
	.cfi_def_cfa_offset 16
Ltmp19:
	mov	rax, qword ptr [rip + _$sS2is17FixedWidthIntegersWL]
	cmp	rax, 0
	mov	qword ptr [rsp], rax
	jne	LBB5_2
	mov	rdi, qword ptr [rip + _$sSis17FixedWidthIntegersMc@GOTPCREL]
	mov	rsi, qword ptr [rip + _$sSiN@GOTPCREL]
	call	_swift_getWitnessTable
	mov	rcx, rax
	mov	qword ptr [rip + _$sS2is17FixedWidthIntegersWL], rax
	mov	qword ptr [rsp], rcx
LBB5_2:
	mov	rax, qword ptr [rsp]
	pop	rcx
	ret
Ltmp20:
Lfunc_end5:
	.cfi_endproc

	.private_extern	_$sS2iSzsWl
	.globl	_$sS2iSzsWl
	.weak_definition	_$sS2iSzsWl
	.p2align	4, 0x90
_$sS2iSzsWl:
Lfunc_begin6:
	.loc	2 0 0
	.cfi_startproc
	push	rax
	.cfi_def_cfa_offset 16
Ltmp21:
	mov	rax, qword ptr [rip + _$sS2iSzsWL]
	cmp	rax, 0
	mov	qword ptr [rsp], rax
	jne	LBB6_2
	mov	rdi, qword ptr [rip + _$sSiSzsMc@GOTPCREL]
	mov	rsi, qword ptr [rip + _$sSiN@GOTPCREL]
	call	_swift_getWitnessTable
	mov	rcx, rax
	mov	qword ptr [rip + _$sS2iSzsWL], rax
	mov	qword ptr [rsp], rcx
LBB6_2:
	mov	rax, qword ptr [rsp]
	pop	rcx
	ret
Ltmp22:
Lfunc_end6:
	.cfi_endproc

	.private_extern	_$sS2iSZsWl
	.globl	_$sS2iSZsWl
	.weak_definition	_$sS2iSZsWl
	.p2align	4, 0x90
_$sS2iSZsWl:
Lfunc_begin7:
	.loc	2 0 0
	.cfi_startproc
	push	rax
	.cfi_def_cfa_offset 16
Ltmp23:
	mov	rax, qword ptr [rip + _$sS2iSZsWL]
	cmp	rax, 0
	mov	qword ptr [rsp], rax
	jne	LBB7_2
	mov	rdi, qword ptr [rip + _$sSiSZsMc@GOTPCREL]
	mov	rsi, qword ptr [rip + _$sSiN@GOTPCREL]
	call	_swift_getWitnessTable
	mov	rcx, rax
	mov	qword ptr [rip + _$sS2iSZsWL], rax
	mov	qword ptr [rsp], rcx
LBB7_2:
	mov	rax, qword ptr [rsp]
	pop	rcx
	ret
Ltmp24:
Lfunc_end7:
	.cfi_endproc

	.private_extern	_$sSa12_endMutationyyF
	.globl	_$sSa12_endMutationyyF
	.weak_definition	_$sSa12_endMutationyyF
	.p2align	4, 0x90
_$sSa12_endMutationyyF:
Lfunc_begin8:
	.loc	2 0 0
	.cfi_startproc
	push	rbp
	.cfi_def_cfa_offset 16
	.cfi_offset rbp, -16
	mov	rbp, rsp
	.cfi_def_cfa_register rbp
Ltmp25:
	pop	rbp
	ret
Ltmp26:
Lfunc_end8:
	.cfi_endproc

	.private_extern	_$s6stack61xSivp
	.globl	_$s6stack61xSivp
.zerofill __DATA,__common,_$s6stack61xSivp,8,3
	.private_extern	_$sS2is17FixedWidthIntegersWL
	.section	__DATA,__data
	.globl	_$sS2is17FixedWidthIntegersWL
	.weak_definition	_$sS2is17FixedWidthIntegersWL
	.p2align	3
_$sS2is17FixedWidthIntegersWL:
	.quad	0

	.private_extern	_$sS2iSzsWL
	.globl	_$sS2iSzsWL
	.weak_definition	_$sS2iSzsWL
	.p2align	3
_$sS2iSzsWL:
	.quad	0

	.private_extern	_$sS2iSZsWL
	.globl	_$sS2iSZsWL
	.weak_definition	_$sS2iSZsWL
	.p2align	3
_$sS2iSZsWL:
	.quad	0

	.section	__TEXT,__swift5_entry,regular,no_dead_strip
	.p2align	2
l_entry_point:
	.long	_main-l_entry_point

	.section	__TEXT,__cstring,cstring_literals
L___unnamed_2:
	.asciz	"\n"

L___unnamed_1:
	.asciz	" "

	.private_extern	___swift_reflection_version
	.section	__TEXT,__const
	.globl	___swift_reflection_version
	.weak_definition	___swift_reflection_version
	.p2align	1
___swift_reflection_version:
	.short	3

	.no_dead_strip	_main
	.no_dead_strip	l_entry_point
	.no_dead_strip	___swift_reflection_version
	.linker_option "-lswiftSwiftOnoneSupport"
	.linker_option "-lswiftCore"
	.linker_option "-lobjc"
	.section	__DATA,__objc_imageinfo,regular,no_dead_strip
L_OBJC_IMAGE_INFO:
	.long	0
	.long	84150080
