	.section	__TEXT,__text,regular,pure_instructions
	.build_version macos, 11, 0	sdk_version 11, 3
	.intel_syntax noprefix
	.file	1 "/Users/kapsyproductivity/projects/a_swift_stack_overflow/code/stack2.swift"
	.globl	_main
	.p2align	4, 0x90
_main:
Lfunc_begin0:
	.loc	1 0 0
	.cfi_startproc
	push	rbp
	.cfi_def_cfa_offset 16
	.cfi_offset rbp, -16
	mov	rbp, rsp
	.cfi_def_cfa_register rbp
	push	r13
	sub	rsp, 152
	.cfi_offset r13, -24
	xor	eax, eax
	lea	rcx, [rbp - 24]
Ltmp0:
	mov	dword ptr [rbp - 36], edi
	mov	rdi, rcx
	mov	qword ptr [rbp - 48], rsi
	mov	esi, eax
	mov	edx, 16
	call	_memset
Ltmp1:
	.loc	1 1 9 prologue_end
	mov	qword ptr [rip + _$s6stack21aSivp], 3
Ltmp2:
	.loc	1 2 13
	mov	rcx, qword ptr [rip + _$s6stack21aSivp]
	.loc	1 2 14 is_stmt 0
	imul	rcx, qword ptr [rip + _$s6stack21aSivp]
	seto	r8b
	test	r8b, 1
	mov	qword ptr [rbp - 56], rcx
	jne	LBB0_3
	.loc	1 0 14
	mov	rax, qword ptr [rbp - 56]
	.loc	1 2 16
	imul	rax, qword ptr [rip + _$s6stack21aSivp]
	seto	cl
	test	cl, 1
	mov	qword ptr [rbp - 64], rax
	jne	LBB0_4
	.loc	1 0 16
	mov	rax, qword ptr [rip + _$sypN@GOTPCREL]
	add	rax, 8
	mov	rcx, qword ptr [rbp - 64]
	.loc	1 2 16
	mov	qword ptr [rip + _$s6stack25cubedSivp], rcx
Ltmp3:
	.loc	1 3 7 is_stmt 1
	mov	edi, 1
	mov	rsi, rax
	call	_$ss27_allocateUninitializedArrayySayxG_BptBwlF
	mov	edi, 6
	mov	esi, 1
	mov	qword ptr [rbp - 72], rax
	mov	qword ptr [rbp - 80], rdx
	call	_$ss26DefaultStringInterpolationV15literalCapacity18interpolationCountABSi_SitcfC
	mov	qword ptr [rbp - 24], rax
	mov	qword ptr [rbp - 16], rdx
Ltmp4:
	.loc	1 3 7 is_stmt 0
	lea	rdi, [rip + L___unnamed_1]
	mov	esi, 6
	mov	edx, 1
	call	_$sSS21_builtinStringLiteral17utf8CodeUnitCount7isASCIISSBp_BwBi1_tcfC
	.loc	1 3 8
	mov	rdi, rax
	mov	rsi, rdx
	lea	r13, [rbp - 24]
	mov	qword ptr [rbp - 88], rdx
	call	_$ss26DefaultStringInterpolationV13appendLiteralyySSF
	mov	rdi, qword ptr [rbp - 88]
	call	_swift_bridgeObjectRelease
	mov	rsi, qword ptr [rip + _$sSiN@GOTPCREL]
	mov	rdx, qword ptr [rip + _$sSis23CustomStringConvertiblesWP@GOTPCREL]
	.loc	1 3 16
	mov	rax, qword ptr [rip + _$s6stack25cubedSivp]
	mov	qword ptr [rbp - 32], rax
	.loc	1 3 15
	lea	rax, [rbp - 32]
	mov	rdi, rax
	lea	r13, [rbp - 24]
	call	_$ss26DefaultStringInterpolationV06appendC0yyxs06CustomB11ConvertibleRzlF
	xor	r8d, r8d
	mov	esi, r8d
	.loc	1 3 22
	lea	rdi, [rip + L___unnamed_2]
	mov	edx, 1
	call	_$sSS21_builtinStringLiteral17utf8CodeUnitCount7isASCIISSBp_BwBi1_tcfC
	mov	rdi, rax
	mov	rsi, rdx
	lea	r13, [rbp - 24]
	mov	qword ptr [rbp - 96], rdx
	call	_$ss26DefaultStringInterpolationV13appendLiteralyySSF
	mov	rdi, qword ptr [rbp - 96]
	call	_swift_bridgeObjectRelease
Ltmp5:
	.loc	1 3 7
	mov	rdi, qword ptr [rbp - 24]
	mov	rax, qword ptr [rbp - 16]
	mov	qword ptr [rbp - 104], rdi
	mov	rdi, rax
	mov	qword ptr [rbp - 112], rax
	call	_swift_bridgeObjectRetain
	lea	rdi, [rbp - 24]
	mov	qword ptr [rbp - 120], rax
	call	_$ss26DefaultStringInterpolationVWOh
	mov	rdi, qword ptr [rbp - 104]
	mov	rsi, qword ptr [rbp - 112]
	mov	qword ptr [rbp - 128], rax
	call	_$sSS19stringInterpolationSSs013DefaultStringB0V_tcfC
	mov	rcx, qword ptr [rip + _$sypN@GOTPCREL]
	add	rcx, 8
	mov	rsi, qword ptr [rip + _$sSSN@GOTPCREL]
	mov	rdi, qword ptr [rbp - 80]
	mov	qword ptr [rdi + 24], rsi
	mov	qword ptr [rdi], rax
	mov	qword ptr [rdi + 8], rdx
	mov	rdi, qword ptr [rbp - 72]
	mov	rsi, rcx
	call	_$ss27_finalizeUninitializedArrayySayxGABnlF
	mov	qword ptr [rbp - 136], rax
	.loc	1 3 6
	call	_$ss5print_9separator10terminatoryypd_S2StFfA0_
	mov	qword ptr [rbp - 144], rax
	mov	qword ptr [rbp - 152], rdx
	call	_$ss5print_9separator10terminatoryypd_S2StFfA1_
	mov	rdi, qword ptr [rbp - 136]
	mov	rsi, qword ptr [rbp - 144]
	mov	rcx, qword ptr [rbp - 152]
	mov	qword ptr [rbp - 160], rdx
	.loc	1 3 1
	mov	rdx, rcx
	mov	rcx, rax
	mov	r8, qword ptr [rbp - 160]
	call	_$ss5print_9separator10terminatoryypd_S2StF
	mov	rdi, qword ptr [rbp - 160]
	call	_swift_bridgeObjectRelease
	mov	rdi, qword ptr [rbp - 152]
	call	_swift_bridgeObjectRelease
	mov	rdi, qword ptr [rbp - 136]
	call	_swift_bridgeObjectRelease
	xor	eax, eax
	add	rsp, 152
	pop	r13
	pop	rbp
	ret
Ltmp6:
LBB0_3:
	.loc	1 0 0
	ud2
Ltmp7:
LBB0_4:
	ud2
Ltmp8:
Lfunc_end0:
	.cfi_endproc

	.private_extern	_$ss26DefaultStringInterpolationVWOh
	.globl	_$ss26DefaultStringInterpolationVWOh
	.weak_definition	_$ss26DefaultStringInterpolationVWOh
	.p2align	4, 0x90
_$ss26DefaultStringInterpolationVWOh:
Lfunc_begin1:
	.file	2 "<compiler-generated>"
	.loc	2 0 0 is_stmt 1
	.cfi_startproc
	push	rbp
	.cfi_def_cfa_offset 16
	.cfi_offset rbp, -16
	mov	rbp, rsp
	.cfi_def_cfa_register rbp
	sub	rsp, 16
Ltmp9:
	mov	rax, qword ptr [rdi + 8]
	mov	qword ptr [rbp - 8], rdi
	mov	rdi, rax
	call	_swift_bridgeObjectRelease
	mov	rax, qword ptr [rbp - 8]
	add	rsp, 16
	pop	rbp
	ret
Ltmp10:
Lfunc_end1:
	.cfi_endproc

	.private_extern	_$ss27_finalizeUninitializedArrayySayxGABnlF
	.globl	_$ss27_finalizeUninitializedArrayySayxGABnlF
	.weak_definition	_$ss27_finalizeUninitializedArrayySayxGABnlF
	.p2align	4, 0x90
_$ss27_finalizeUninitializedArrayySayxGABnlF:
Lfunc_begin2:
	.loc	2 0 0
	.cfi_startproc
	push	rbp
	.cfi_def_cfa_offset 16
	.cfi_offset rbp, -16
	mov	rbp, rsp
	.cfi_def_cfa_register rbp
	push	r13
	sub	rsp, 24
	.cfi_offset r13, -24
	mov	qword ptr [rbp - 16], rsi
Ltmp11:
	mov	qword ptr [rbp - 24], rdi
	xor	eax, eax
	mov	edi, eax
	call	_$sSaMa
	lea	r13, [rbp - 24]
	mov	rdi, rax
	mov	qword ptr [rbp - 32], rdx
	call	_$sSa12_endMutationyyF
	mov	rax, qword ptr [rbp - 24]
	add	rsp, 24
	pop	r13
	pop	rbp
	ret
Ltmp12:
Lfunc_end2:
	.cfi_endproc

	.private_extern	_$ss5print_9separator10terminatoryypd_S2StFfA0_
	.globl	_$ss5print_9separator10terminatoryypd_S2StFfA0_
	.weak_definition	_$ss5print_9separator10terminatoryypd_S2StFfA0_
	.p2align	4, 0x90
_$ss5print_9separator10terminatoryypd_S2StFfA0_:
Lfunc_begin3:
	.loc	2 0 0
	.cfi_startproc
	push	rbp
	.cfi_def_cfa_offset 16
	.cfi_offset rbp, -16
	mov	rbp, rsp
	.cfi_def_cfa_register rbp
Ltmp13:
	lea	rdi, [rip + L___unnamed_3]
	mov	esi, 1
	mov	edx, 1
	call	_$sSS21_builtinStringLiteral17utf8CodeUnitCount7isASCIISSBp_BwBi1_tcfC
	pop	rbp
	ret
Ltmp14:
Lfunc_end3:
	.cfi_endproc

	.private_extern	_$ss5print_9separator10terminatoryypd_S2StFfA1_
	.globl	_$ss5print_9separator10terminatoryypd_S2StFfA1_
	.weak_definition	_$ss5print_9separator10terminatoryypd_S2StFfA1_
	.p2align	4, 0x90
_$ss5print_9separator10terminatoryypd_S2StFfA1_:
Lfunc_begin4:
	.loc	2 0 0
	.cfi_startproc
	push	rbp
	.cfi_def_cfa_offset 16
	.cfi_offset rbp, -16
	mov	rbp, rsp
	.cfi_def_cfa_register rbp
Ltmp15:
	lea	rdi, [rip + L___unnamed_4]
	mov	esi, 1
	mov	edx, 1
	call	_$sSS21_builtinStringLiteral17utf8CodeUnitCount7isASCIISSBp_BwBi1_tcfC
	pop	rbp
	ret
Ltmp16:
Lfunc_end4:
	.cfi_endproc

	.private_extern	_$sSa12_endMutationyyF
	.globl	_$sSa12_endMutationyyF
	.weak_definition	_$sSa12_endMutationyyF
	.p2align	4, 0x90
_$sSa12_endMutationyyF:
Lfunc_begin5:
	.loc	2 0 0
	.cfi_startproc
	push	rbp
	.cfi_def_cfa_offset 16
	.cfi_offset rbp, -16
	mov	rbp, rsp
	.cfi_def_cfa_register rbp
Ltmp17:
	pop	rbp
	ret
Ltmp18:
Lfunc_end5:
	.cfi_endproc

	.private_extern	_$s6stack21aSivp
	.globl	_$s6stack21aSivp
.zerofill __DATA,__common,_$s6stack21aSivp,8,3
	.private_extern	_$s6stack25cubedSivp
	.globl	_$s6stack25cubedSivp
.zerofill __DATA,__common,_$s6stack25cubedSivp,8,3
	.section	__TEXT,__cstring,cstring_literals
L___unnamed_1:
	.asciz	"cubed:"

L___unnamed_2:
	.space	1

	.section	__TEXT,__swift5_entry,regular,no_dead_strip
	.p2align	2
l_entry_point:
	.long	_main-l_entry_point

	.section	__TEXT,__cstring,cstring_literals
L___unnamed_4:
	.asciz	"\n"

L___unnamed_3:
	.asciz	" "

	.private_extern	___swift_reflection_version
	.section	__TEXT,__const
	.globl	___swift_reflection_version
	.weak_definition	___swift_reflection_version
	.p2align	1
___swift_reflection_version:
	.short	3

	.no_dead_strip	_main
	.no_dead_strip	l_entry_point
	.no_dead_strip	___swift_reflection_version
	.linker_option "-lswiftSwiftOnoneSupport"
	.linker_option "-lswiftCore"
	.linker_option "-lobjc"
	.section	__DATA,__objc_imageinfo,regular,no_dead_strip
L_OBJC_IMAGE_INFO:
	.long	0
	.long	84150080
