	.section	__TEXT,__text,regular,pure_instructions
	.build_version macos, 11, 0	sdk_version 11, 3
	.intel_syntax noprefix
	.file	1 "/Users/kapsyproductivity/projects/a_swift_stack_overflow/code/stack3.swift"
	.globl	_main
	.p2align	4, 0x90
_main:
Lfunc_begin0:
	.loc	1 0 0
	.cfi_startproc
	push	rbp
	.cfi_def_cfa_offset 16
	.cfi_offset rbp, -16
	mov	rbp, rsp
	.cfi_def_cfa_register rbp
	sub	rsp, 16
Ltmp0:
	.loc	1 3 17 prologue_end
	mov	qword ptr [rip + _$s6stack35bytesSivp], 0
	mov	dword ptr [rbp - 4], edi
	mov	qword ptr [rbp - 16], rsi
Ltmp1:
	.loc	1 32 1
	call	_$s6stack33recyyF
	xor	eax, eax
	add	rsp, 16
	pop	rbp
	ret
Ltmp2:
Lfunc_end0:
	.cfi_endproc

	.private_extern	_$s6stack33recyyF
	.globl	_$s6stack33recyyF
	.p2align	4, 0x90
_$s6stack33recyyF:
Lfunc_begin1:
	.loc	1 4 0
	.cfi_startproc
	push	rbp
	.cfi_def_cfa_offset 16
	.cfi_offset rbp, -16
	mov	rbp, rsp
	.cfi_def_cfa_register rbp
	push	r13
	sub	rsp, 600
	.cfi_offset r13, -24
	xor	eax, eax
	lea	rcx, [rbp - 40]
Ltmp3:
	mov	rdi, rcx
	mov	esi, eax
	mov	edx, 32
	mov	dword ptr [rbp - 236], eax
	call	_memset
Ltmp4:
	lea	rcx, [rbp - 96]
Ltmp5:
	mov	rdi, rcx
	mov	esi, dword ptr [rbp - 236]
	mov	edx, 16
	call	_memset
Ltmp6:
	.loc	1 0 0 prologue_end
	mov	byte ptr [rbp - 40], 0
	mov	byte ptr [rbp - 39], 0
	mov	byte ptr [rbp - 38], 0
	mov	byte ptr [rbp - 37], 0
	mov	byte ptr [rbp - 36], 0
	mov	byte ptr [rbp - 35], 0
	mov	byte ptr [rbp - 34], 0
	mov	byte ptr [rbp - 33], 0
	mov	byte ptr [rbp - 32], 0
	mov	byte ptr [rbp - 31], 0
	mov	byte ptr [rbp - 30], 0
	mov	byte ptr [rbp - 29], 0
	mov	byte ptr [rbp - 28], 0
	mov	byte ptr [rbp - 27], 0
	mov	byte ptr [rbp - 26], 0
	mov	byte ptr [rbp - 25], 0
	mov	byte ptr [rbp - 24], 0
	mov	byte ptr [rbp - 23], 0
	mov	byte ptr [rbp - 22], 0
	mov	byte ptr [rbp - 21], 0
	mov	byte ptr [rbp - 20], 0
	mov	byte ptr [rbp - 19], 0
	mov	byte ptr [rbp - 18], 0
	mov	byte ptr [rbp - 17], 0
	mov	byte ptr [rbp - 16], 0
	mov	byte ptr [rbp - 15], 0
	mov	byte ptr [rbp - 14], 0
	mov	byte ptr [rbp - 13], 0
	mov	byte ptr [rbp - 12], 0
	mov	byte ptr [rbp - 11], 0
	mov	byte ptr [rbp - 10], 0
	mov	byte ptr [rbp - 9], 0
	.loc	1 25 25
	mov	byte ptr [rbp - 56], 0
	.loc	1 25 19 is_stmt 0
	lea	rcx, [rbp - 48]
	lea	rdx, [rbp - 56]
	mov	qword ptr [rbp - 248], rcx
	mov	qword ptr [rbp - 256], rdx
	call	_$sS2is17FixedWidthIntegersWl
	mov	qword ptr [rbp - 264], rax
	call	_$sS2iSZsWl
	mov	qword ptr [rbp - 272], rax
	call	_$ss4Int8VABSzsWl
	mov	rcx, qword ptr [rip + _$sSiN@GOTPCREL]
	mov	rdx, qword ptr [rip + _$ss4Int8VN@GOTPCREL]
	mov	rdi, qword ptr [rbp - 248]
	mov	qword ptr [rbp - 280], rax
	mov	rax, rdi
	mov	rdi, qword ptr [rbp - 256]
	mov	rsi, rcx
	mov	r8, qword ptr [rbp - 264]
	mov	qword ptr [rbp - 288], rcx
	mov	rcx, r8
	mov	r8, qword ptr [rbp - 272]
	mov	r9, qword ptr [rbp - 280]
	mov	r13, qword ptr [rbp - 288]
	call	_$sSZss17FixedWidthIntegerRzrlEyxqd__cSzRd__lufC
	mov	rax, qword ptr [rbp - 48]
	.loc	1 25 17
	add	rax, 32
	seto	r10b
	test	r10b, 1
	mov	qword ptr [rbp - 296], rax
	jne	LBB1_70
	.loc	1 0 17
	lea	rax, [rip + _$s6stack35bytesSivp]
	xor	ecx, ecx
	.loc	1 25 5
	mov	rdi, rax
	lea	rsi, [rbp - 80]
	mov	edx, 33
	call	_swift_beginAccess
	mov	rax, qword ptr [rbp - 296]
	.loc	1 25 11
	add	rax, qword ptr [rip + _$s6stack35bytesSivp]
	seto	r8b
	test	r8b, 1
	mov	qword ptr [rbp - 304], rax
	jne	LBB1_71
	.loc	1 0 11
	mov	rax, qword ptr [rbp - 304]
	.loc	1 25 11
	mov	qword ptr [rip + _$s6stack35bytesSivp], rax
	lea	rdi, [rbp - 80]
	call	_swift_endAccess
	mov	rax, qword ptr [rip + _$sypN@GOTPCREL]
	add	rax, 8
	.loc	1 26 12 is_stmt 1
	mov	edi, 1
	mov	rsi, rax
	call	_$ss27_allocateUninitializedArrayySayxG_BptBwlF
	mov	edi, 21
	mov	esi, 1
	mov	qword ptr [rbp - 312], rax
	mov	qword ptr [rbp - 320], rdx
	call	_$ss26DefaultStringInterpolationV15literalCapacity18interpolationCountABSi_SitcfC
	mov	qword ptr [rbp - 96], rax
	mov	qword ptr [rbp - 88], rdx
Ltmp7:
	.loc	1 26 12 is_stmt 0
	lea	rdi, [rip + L___unnamed_1]
	mov	esi, 21
	mov	edx, 1
	call	_$sSS21_builtinStringLiteral17utf8CodeUnitCount7isASCIISSBp_BwBi1_tcfC
	.loc	1 26 13
	mov	rdi, rax
	mov	rsi, rdx
	lea	r13, [rbp - 96]
	mov	qword ptr [rbp - 328], rdx
	call	_$ss26DefaultStringInterpolationV13appendLiteralyySSF
	mov	rdi, qword ptr [rbp - 328]
	call	_swift_bridgeObjectRelease
	lea	rax, [rip + _$s6stack35bytesSivp]
	xor	ecx, ecx
	.loc	1 26 36
	mov	rdi, rax
	lea	rsi, [rbp - 120]
	mov	edx, 32
	call	_swift_beginAccess
	mov	rax, qword ptr [rip + _$s6stack35bytesSivp]
	lea	rdi, [rbp - 120]
	mov	qword ptr [rbp - 336], rax
	call	_swift_endAccess
	mov	rsi, qword ptr [rip + _$sSiN@GOTPCREL]
	mov	rdx, qword ptr [rip + _$sSis23CustomStringConvertiblesWP@GOTPCREL]
	mov	rax, qword ptr [rbp - 336]
	mov	qword ptr [rbp - 128], rax
	.loc	1 26 35
	lea	rax, [rbp - 128]
	mov	rdi, rax
	lea	r13, [rbp - 96]
	call	_$ss26DefaultStringInterpolationV06appendC0yyxs06CustomB11ConvertibleRzlF
	xor	r8d, r8d
	mov	esi, r8d
	.loc	1 26 42
	lea	rdi, [rip + L___unnamed_2]
	mov	edx, 1
	call	_$sSS21_builtinStringLiteral17utf8CodeUnitCount7isASCIISSBp_BwBi1_tcfC
	mov	rdi, rax
	mov	rsi, rdx
	lea	r13, [rbp - 96]
	mov	qword ptr [rbp - 344], rdx
	call	_$ss26DefaultStringInterpolationV13appendLiteralyySSF
	mov	rdi, qword ptr [rbp - 344]
	call	_swift_bridgeObjectRelease
Ltmp8:
	.loc	1 26 12
	mov	rdi, qword ptr [rbp - 96]
	mov	rax, qword ptr [rbp - 88]
	mov	qword ptr [rbp - 352], rdi
	mov	rdi, rax
	mov	qword ptr [rbp - 360], rax
	call	_swift_bridgeObjectRetain
	lea	rdi, [rbp - 96]
	mov	qword ptr [rbp - 368], rax
	call	_$ss26DefaultStringInterpolationVWOh
	mov	rdi, qword ptr [rbp - 352]
	mov	rsi, qword ptr [rbp - 360]
	mov	qword ptr [rbp - 376], rax
	call	_$sSS19stringInterpolationSSs013DefaultStringB0V_tcfC
	mov	rcx, qword ptr [rip + _$sypN@GOTPCREL]
	add	rcx, 8
	mov	rsi, qword ptr [rip + _$sSSN@GOTPCREL]
	mov	rdi, qword ptr [rbp - 320]
	mov	qword ptr [rdi + 24], rsi
	mov	qword ptr [rdi], rax
	mov	qword ptr [rdi + 8], rdx
	mov	rdi, qword ptr [rbp - 312]
	mov	rsi, rcx
	call	_$ss27_finalizeUninitializedArrayySayxGABnlF
	mov	qword ptr [rbp - 384], rax
	.loc	1 26 11
	call	_$ss5print_9separator10terminatoryypd_S2StFfA0_
	mov	qword ptr [rbp - 392], rax
	mov	qword ptr [rbp - 400], rdx
	call	_$ss5print_9separator10terminatoryypd_S2StFfA1_
	mov	rdi, qword ptr [rbp - 384]
	mov	rsi, qword ptr [rbp - 392]
	mov	rcx, qword ptr [rbp - 400]
	mov	qword ptr [rbp - 408], rdx
	.loc	1 26 5
	mov	rdx, rcx
	mov	rcx, rax
	mov	r8, qword ptr [rbp - 408]
	call	_$ss5print_9separator10terminatoryypd_S2StF
	mov	rdi, qword ptr [rbp - 408]
	call	_swift_bridgeObjectRelease
	mov	rdi, qword ptr [rbp - 400]
	call	_swift_bridgeObjectRelease
	mov	rdi, qword ptr [rbp - 384]
	call	_swift_bridgeObjectRelease
	lea	rax, [rip + _$s6stack35bytesSivp]
	xor	r9d, r9d
	mov	ecx, r9d
Ltmp9:
	.loc	1 27 9 is_stmt 1
	mov	rdi, rax
	lea	rsi, [rbp - 152]
	mov	edx, 32
	call	_swift_beginAccess
	mov	rax, qword ptr [rip + _$s6stack35bytesSivp]
	lea	rdi, [rbp - 152]
	mov	qword ptr [rbp - 416], rax
	call	_swift_endAccess
	mov	r13, qword ptr [rip + _$sSiN@GOTPCREL]
	.loc	1 27 20 is_stmt 0
	call	_$sSZsE8isSignedSbvgZSi_Tgq5
	test	al, 1
	jne	LBB1_3
	jmp	LBB1_4
LBB1_3:
	.loc	1 0 20
	xor	eax, eax
	mov	byte ptr [rbp - 417], al
	.loc	1 27 20
	jmp	LBB1_5
LBB1_4:
	.loc	1 0 20
	xor	eax, eax
	mov	byte ptr [rbp - 417], al
	.loc	1 27 20
	jmp	LBB1_5
LBB1_5:
	.loc	1 0 20
	mov	al, byte ptr [rbp - 417]
	mov	r13, qword ptr [rip + _$sSiN@GOTPCREL]
	mov	byte ptr [rbp - 418], al
	.loc	1 27 20
	call	_$sSZsE8isSignedSbvgZSi_Tgq5
	test	al, 1
	jne	LBB1_6
	jmp	LBB1_7
LBB1_6:
	mov	al, 1
	mov	byte ptr [rbp - 419], al
	jmp	LBB1_8
LBB1_7:
	.loc	1 0 20
	xor	eax, eax
	mov	byte ptr [rbp - 419], al
	.loc	1 27 20
	jmp	LBB1_8
LBB1_8:
	.loc	1 0 20
	mov	al, byte ptr [rbp - 419]
	mov	cl, byte ptr [rbp - 418]
	.loc	1 27 20
	xor	cl, al
	xor	cl, 1
	xor	cl, -1
	test	cl, 1
	mov	byte ptr [rbp - 420], al
	jne	LBB1_9
	jmp	LBB1_10
LBB1_9:
	.loc	1 0 20
	mov	al, byte ptr [rbp - 418]
	mov	byte ptr [rbp - 421], al
	.loc	1 27 20
	jmp	LBB1_11
LBB1_10:
	jmp	LBB1_57
LBB1_11:
	.loc	1 0 20
	mov	al, byte ptr [rbp - 421]
	.loc	1 27 20
	test	al, 1
	jne	LBB1_12
	jmp	LBB1_13
LBB1_12:
	mov	rax, -64
	mov	qword ptr [rbp - 432], rax
	jmp	LBB1_14
LBB1_13:
	.loc	1 0 20
	mov	r13, qword ptr [rip + _$sSiN@GOTPCREL]
	.loc	1 27 20
	call	_$sSZsE8isSignedSbvgZSi_Tgq5
	test	al, 1
	jne	LBB1_33
	jmp	LBB1_34
LBB1_14:
	.loc	1 0 20
	mov	rax, qword ptr [rbp - 432]
	mov	r13, qword ptr [rip + _$sSiN@GOTPCREL]
	mov	qword ptr [rbp - 440], rax
	.loc	1 27 20
	call	_$sSZsE8isSignedSbvgZSi_Tgq5
	test	al, 1
	jne	LBB1_15
	jmp	LBB1_18
LBB1_15:
	jmp	LBB1_16
LBB1_16:
	jmp	LBB1_17
LBB1_17:
	mov	qword ptr [rbp - 232], 0
	jmp	LBB1_19
LBB1_18:
	mov	qword ptr [rbp - 232], 0
LBB1_19:
	.loc	1 0 20
	mov	rax, qword ptr [rbp - 440]
	.loc	1 27 20
	cmp	rax, 0
	setl	cl
	xor	cl, -1
	test	cl, 1
	jne	LBB1_20
	jmp	LBB1_21
LBB1_20:
	.loc	1 0 20
	mov	rax, qword ptr [rbp - 440]
	.loc	1 27 20
	cmp	rax, 64
	setl	cl
	test	cl, 1
	jne	LBB1_22
	jmp	LBB1_25
LBB1_21:
	mov	rax, -64
	mov	rcx, qword ptr [rbp - 440]
	cmp	rax, rcx
	setl	dl
	xor	dl, -1
	test	dl, 1
	jne	LBB1_28
	jmp	LBB1_29
LBB1_22:
	jmp	LBB1_23
LBB1_23:
	jmp	LBB1_24
LBB1_24:
	.loc	1 0 20
	mov	rax, qword ptr [rbp - 440]
	.loc	1 27 20
	and	rax, 63
	mov	rcx, rax
	mov	eax, 1
	shl	rax, cl
	mov	qword ptr [rbp - 224], rax
	jmp	LBB1_26
LBB1_25:
	mov	qword ptr [rbp - 224], 0
LBB1_26:
	mov	rax, qword ptr [rbp - 224]
	.loc	1 27 26
	mov	ecx, 8
	imul	rax, rcx
	seto	dl
	test	dl, 1
	mov	qword ptr [rbp - 448], rax
	jne	LBB1_73
	.loc	1 0 26
	mov	rax, qword ptr [rbp - 416]
	mov	rcx, qword ptr [rbp - 448]
	.loc	1 27 15
	cmp	rax, rcx
	jl	LBB1_67
	jmp	LBB1_68
LBB1_28:
	.loc	1 27 20
	mov	rax, qword ptr [rbp - 232]
	mov	qword ptr [rbp - 224], rax
	jmp	LBB1_26
LBB1_29:
	.loc	1 0 20
	xor	eax, eax
	mov	ecx, eax
	mov	rdx, qword ptr [rbp - 440]
	.loc	1 27 20
	sub	rcx, rdx
	seto	sil
	test	sil, 1
	mov	qword ptr [rbp - 456], rcx
	jne	LBB1_72
	jmp	LBB1_31
LBB1_31:
	jmp	LBB1_32
LBB1_32:
	.loc	1 0 20
	mov	rax, qword ptr [rbp - 456]
	.loc	1 27 20
	and	rax, 63
	mov	rcx, rax
	mov	eax, 1
	sar	rax, cl
	mov	qword ptr [rbp - 224], rax
	jmp	LBB1_26
LBB1_33:
	.loc	1 0 20
	xor	eax, eax
	mov	byte ptr [rbp - 457], al
	.loc	1 27 20
	jmp	LBB1_35
LBB1_34:
	.loc	1 0 20
	xor	eax, eax
	mov	byte ptr [rbp - 457], al
	.loc	1 27 20
	jmp	LBB1_35
LBB1_35:
	.loc	1 0 20
	mov	al, byte ptr [rbp - 457]
	mov	r13, qword ptr [rip + _$sSiN@GOTPCREL]
	mov	byte ptr [rbp - 458], al
	.loc	1 27 20
	call	_$sSZsE8isSignedSbvgZSi_Tgq5
	test	al, 1
	jne	LBB1_36
	jmp	LBB1_37
LBB1_36:
	.loc	1 0 20
	xor	eax, eax
	mov	byte ptr [rbp - 459], al
	.loc	1 27 20
	jmp	LBB1_38
LBB1_37:
	.loc	1 0 20
	xor	eax, eax
	mov	byte ptr [rbp - 459], al
	.loc	1 27 20
	jmp	LBB1_38
LBB1_38:
	.loc	1 0 20
	mov	al, byte ptr [rbp - 459]
	mov	cl, byte ptr [rbp - 458]
	.loc	1 27 20
	xor	cl, al
	xor	cl, 1
	xor	cl, -1
	test	cl, 1
	mov	byte ptr [rbp - 460], al
	jne	LBB1_39
	jmp	LBB1_40
LBB1_39:
	.loc	1 0 20
	mov	al, byte ptr [rbp - 458]
	mov	byte ptr [rbp - 461], al
	.loc	1 27 20
	jmp	LBB1_41
LBB1_40:
	jmp	LBB1_45
LBB1_41:
	.loc	1 0 20
	mov	al, byte ptr [rbp - 461]
	.loc	1 27 20
	test	al, 1
	jne	LBB1_42
	jmp	LBB1_43
LBB1_42:
	mov	eax, 64
	mov	qword ptr [rbp - 472], rax
	jmp	LBB1_44
LBB1_43:
	mov	qword ptr [rbp - 216], 20
	lea	rax, [rbp - 208]
	lea	rcx, [rbp - 216]
	mov	qword ptr [rbp - 480], rax
	mov	qword ptr [rbp - 488], rcx
	call	_$sS2iSzsWl
	mov	rcx, qword ptr [rip + _$sSiN@GOTPCREL]
	mov	rdx, qword ptr [rbp - 480]
	mov	qword ptr [rbp - 496], rax
	mov	rax, rdx
	mov	rdi, qword ptr [rbp - 488]
	mov	rsi, rcx
	mov	rdx, rcx
	mov	r8, qword ptr [rbp - 264]
	mov	qword ptr [rbp - 504], rcx
	mov	rcx, r8
	mov	r8, qword ptr [rbp - 272]
	mov	r9, qword ptr [rbp - 496]
	mov	r13, qword ptr [rbp - 504]
	call	_$sSZss17FixedWidthIntegerRzrlEyxqd__cSzRd__lufC
	mov	rax, qword ptr [rbp - 208]
	mov	qword ptr [rbp - 472], rax
LBB1_44:
	.loc	1 0 20
	mov	rax, qword ptr [rbp - 472]
	mov	qword ptr [rbp - 432], rax
	.loc	1 27 20
	jmp	LBB1_14
LBB1_45:
	jmp	LBB1_46
LBB1_46:
	jmp	LBB1_47
LBB1_47:
	mov	qword ptr [rbp - 200], 20
	lea	rax, [rbp - 192]
	lea	rcx, [rbp - 200]
	mov	qword ptr [rbp - 512], rax
	mov	qword ptr [rbp - 520], rcx
	call	_$sS2iSzsWl
	mov	rcx, qword ptr [rip + _$sSiN@GOTPCREL]
	mov	rdx, qword ptr [rbp - 512]
	mov	qword ptr [rbp - 528], rax
	mov	rax, rdx
	mov	rdi, qword ptr [rbp - 520]
	mov	rsi, rcx
	mov	rdx, rcx
	mov	r8, qword ptr [rbp - 264]
	mov	qword ptr [rbp - 536], rcx
	mov	rcx, r8
	mov	r8, qword ptr [rbp - 528]
	mov	r13, qword ptr [rbp - 536]
	call	_$ss17FixedWidthIntegerPsE18truncatingIfNeededxqd___tcSzRd__lufC
	cmp	qword ptr [rbp - 192], 0
	setl	r9b
	mov	rax, qword ptr [rbp - 192]
	mov	byte ptr [rbp - 537], r9b
	mov	qword ptr [rbp - 552], rax
	jmp	LBB1_49
LBB1_49:
	.loc	1 0 20
	mov	rax, qword ptr [rbp - 552]
	.loc	1 27 20
	cmp	rax, 20
	jne	LBB1_51
	.loc	1 0 20
	mov	al, byte ptr [rbp - 460]
	mov	cl, byte ptr [rbp - 537]
	.loc	1 27 20
	xor	al, cl
	xor	al, 1
	mov	byte ptr [rbp - 553], al
	jmp	LBB1_52
LBB1_51:
	.loc	1 0 20
	xor	eax, eax
	mov	byte ptr [rbp - 553], al
	.loc	1 27 20
	jmp	LBB1_52
LBB1_52:
	.loc	1 0 20
	mov	al, byte ptr [rbp - 553]
	.loc	1 27 20
	test	al, 1
	jne	LBB1_53
	jmp	LBB1_54
LBB1_53:
	mov	eax, 64
	cmp	rax, qword ptr [rbp - 192]
	setl	cl
	mov	byte ptr [rbp - 461], cl
	jmp	LBB1_41
LBB1_54:
	jmp	LBB1_55
LBB1_55:
	jmp	LBB1_56
LBB1_56:
	.loc	1 0 20
	xor	eax, eax
	mov	byte ptr [rbp - 461], al
	.loc	1 27 20
	jmp	LBB1_41
LBB1_57:
	jmp	LBB1_58
LBB1_58:
	jmp	LBB1_59
LBB1_59:
	jmp	LBB1_60
LBB1_60:
	jmp	LBB1_61
LBB1_61:
	mov	qword ptr [rbp - 168], -64
	lea	rax, [rbp - 160]
	lea	rcx, [rbp - 168]
	mov	qword ptr [rbp - 568], rax
	mov	qword ptr [rbp - 576], rcx
	call	_$sS2iSzsWl
	mov	rcx, qword ptr [rip + _$sSiN@GOTPCREL]
	mov	rdx, qword ptr [rbp - 568]
	mov	qword ptr [rbp - 584], rax
	mov	rax, rdx
	mov	rdi, qword ptr [rbp - 576]
	mov	rsi, rcx
	mov	rdx, rcx
	mov	r8, qword ptr [rbp - 264]
	mov	qword ptr [rbp - 592], rcx
	mov	rcx, r8
	mov	r8, qword ptr [rbp - 584]
	mov	r13, qword ptr [rbp - 592]
	call	_$ss17FixedWidthIntegerPsE18truncatingIfNeededxqd___tcSzRd__lufC
	mov	rax, qword ptr [rbp - 160]
	cmp	rax, -64
	jne	LBB1_63
	.loc	1 0 20
	mov	al, byte ptr [rbp - 420]
	mov	byte ptr [rbp - 593], al
	.loc	1 27 20
	jmp	LBB1_64
LBB1_63:
	.loc	1 0 20
	xor	eax, eax
	mov	byte ptr [rbp - 593], al
	.loc	1 27 20
	jmp	LBB1_64
LBB1_64:
	.loc	1 0 20
	mov	al, byte ptr [rbp - 593]
	.loc	1 27 20
	test	al, 1
	jne	LBB1_65
	jmp	LBB1_66
LBB1_65:
	.loc	1 0 20
	xor	eax, eax
	mov	byte ptr [rbp - 421], al
	.loc	1 27 20
	jmp	LBB1_11
LBB1_66:
	.loc	1 0 20
	mov	rax, qword ptr [rip + _$sSiN@GOTPCREL]
	.loc	1 27 20
	mov	qword ptr [rbp - 184], 20
	lea	rcx, [rbp - 176]
	lea	rdx, [rbp - 184]
	mov	qword ptr [rbp - 608], rax
	mov	rax, rcx
	mov	rdi, rdx
	mov	rsi, qword ptr [rbp - 608]
	mov	rdx, qword ptr [rbp - 608]
	mov	rcx, qword ptr [rbp - 264]
	mov	r8, qword ptr [rbp - 584]
	mov	r13, qword ptr [rbp - 608]
	call	_$ss17FixedWidthIntegerPsE18truncatingIfNeededxqd___tcSzRd__lufC
	cmp	qword ptr [rbp - 176], -64
	setl	r9b
	mov	byte ptr [rbp - 421], r9b
	jmp	LBB1_11
LBB1_67:
Ltmp10:
	.loc	1 28 9 is_stmt 1
	call	_$s6stack33recyyF
Ltmp11:
	.loc	1 29 5
	jmp	LBB1_69
LBB1_68:
	.loc	1 27 5
	jmp	LBB1_69
Ltmp12:
LBB1_69:
	.loc	1 30 1
	add	rsp, 600
	pop	r13
	pop	rbp
	ret
LBB1_70:
Ltmp13:
	.loc	1 0 0 is_stmt 0
	ud2
Ltmp14:
LBB1_71:
	ud2
Ltmp15:
LBB1_72:
	ud2
Ltmp16:
LBB1_73:
	ud2
Ltmp17:
Lfunc_end1:
	.cfi_endproc

	.private_extern	_$sS2is17FixedWidthIntegersWl
	.globl	_$sS2is17FixedWidthIntegersWl
	.weak_definition	_$sS2is17FixedWidthIntegersWl
	.p2align	4, 0x90
_$sS2is17FixedWidthIntegersWl:
Lfunc_begin2:
	.file	2 "<compiler-generated>"
	.loc	2 0 0 is_stmt 1
	.cfi_startproc
	push	rax
	.cfi_def_cfa_offset 16
Ltmp18:
	mov	rax, qword ptr [rip + _$sS2is17FixedWidthIntegersWL]
	cmp	rax, 0
	mov	qword ptr [rsp], rax
	jne	LBB2_2
	mov	rdi, qword ptr [rip + _$sSis17FixedWidthIntegersMc@GOTPCREL]
	mov	rsi, qword ptr [rip + _$sSiN@GOTPCREL]
	call	_swift_getWitnessTable
	mov	rcx, rax
	mov	qword ptr [rip + _$sS2is17FixedWidthIntegersWL], rax
	mov	qword ptr [rsp], rcx
LBB2_2:
	mov	rax, qword ptr [rsp]
	pop	rcx
	ret
Ltmp19:
Lfunc_end2:
	.cfi_endproc

	.private_extern	_$sS2iSZsWl
	.globl	_$sS2iSZsWl
	.weak_definition	_$sS2iSZsWl
	.p2align	4, 0x90
_$sS2iSZsWl:
Lfunc_begin3:
	.loc	2 0 0
	.cfi_startproc
	push	rax
	.cfi_def_cfa_offset 16
Ltmp20:
	mov	rax, qword ptr [rip + _$sS2iSZsWL]
	cmp	rax, 0
	mov	qword ptr [rsp], rax
	jne	LBB3_2
	mov	rdi, qword ptr [rip + _$sSiSZsMc@GOTPCREL]
	mov	rsi, qword ptr [rip + _$sSiN@GOTPCREL]
	call	_swift_getWitnessTable
	mov	rcx, rax
	mov	qword ptr [rip + _$sS2iSZsWL], rax
	mov	qword ptr [rsp], rcx
LBB3_2:
	mov	rax, qword ptr [rsp]
	pop	rcx
	ret
Ltmp21:
Lfunc_end3:
	.cfi_endproc

	.private_extern	_$ss4Int8VABSzsWl
	.globl	_$ss4Int8VABSzsWl
	.weak_definition	_$ss4Int8VABSzsWl
	.p2align	4, 0x90
_$ss4Int8VABSzsWl:
Lfunc_begin4:
	.loc	2 0 0
	.cfi_startproc
	push	rax
	.cfi_def_cfa_offset 16
Ltmp22:
	mov	rax, qword ptr [rip + _$ss4Int8VABSzsWL]
	cmp	rax, 0
	mov	qword ptr [rsp], rax
	jne	LBB4_2
	mov	rdi, qword ptr [rip + _$ss4Int8VSzsMc@GOTPCREL]
	mov	rsi, qword ptr [rip + _$ss4Int8VN@GOTPCREL]
	call	_swift_getWitnessTable
	mov	rcx, rax
	mov	qword ptr [rip + _$ss4Int8VABSzsWL], rax
	mov	qword ptr [rsp], rcx
LBB4_2:
	mov	rax, qword ptr [rsp]
	pop	rcx
	ret
Ltmp23:
Lfunc_end4:
	.cfi_endproc

	.private_extern	_$ss26DefaultStringInterpolationVWOh
	.globl	_$ss26DefaultStringInterpolationVWOh
	.weak_definition	_$ss26DefaultStringInterpolationVWOh
	.p2align	4, 0x90
_$ss26DefaultStringInterpolationVWOh:
Lfunc_begin5:
	.loc	2 0 0
	.cfi_startproc
	push	rbp
	.cfi_def_cfa_offset 16
	.cfi_offset rbp, -16
	mov	rbp, rsp
	.cfi_def_cfa_register rbp
	sub	rsp, 16
Ltmp24:
	mov	rax, qword ptr [rdi + 8]
	mov	qword ptr [rbp - 8], rdi
	mov	rdi, rax
	call	_swift_bridgeObjectRelease
	mov	rax, qword ptr [rbp - 8]
	add	rsp, 16
	pop	rbp
	ret
Ltmp25:
Lfunc_end5:
	.cfi_endproc

	.private_extern	_$ss27_finalizeUninitializedArrayySayxGABnlF
	.globl	_$ss27_finalizeUninitializedArrayySayxGABnlF
	.weak_definition	_$ss27_finalizeUninitializedArrayySayxGABnlF
	.p2align	4, 0x90
_$ss27_finalizeUninitializedArrayySayxGABnlF:
Lfunc_begin6:
	.loc	2 0 0
	.cfi_startproc
	push	rbp
	.cfi_def_cfa_offset 16
	.cfi_offset rbp, -16
	mov	rbp, rsp
	.cfi_def_cfa_register rbp
	push	r13
	sub	rsp, 24
	.cfi_offset r13, -24
	mov	qword ptr [rbp - 16], rsi
Ltmp26:
	mov	qword ptr [rbp - 24], rdi
	xor	eax, eax
	mov	edi, eax
	call	_$sSaMa
	lea	r13, [rbp - 24]
	mov	rdi, rax
	mov	qword ptr [rbp - 32], rdx
	call	_$sSa12_endMutationyyF
	mov	rax, qword ptr [rbp - 24]
	add	rsp, 24
	pop	r13
	pop	rbp
	ret
Ltmp27:
Lfunc_end6:
	.cfi_endproc

	.private_extern	_$ss5print_9separator10terminatoryypd_S2StFfA0_
	.globl	_$ss5print_9separator10terminatoryypd_S2StFfA0_
	.weak_definition	_$ss5print_9separator10terminatoryypd_S2StFfA0_
	.p2align	4, 0x90
_$ss5print_9separator10terminatoryypd_S2StFfA0_:
Lfunc_begin7:
	.loc	2 0 0
	.cfi_startproc
	push	rbp
	.cfi_def_cfa_offset 16
	.cfi_offset rbp, -16
	mov	rbp, rsp
	.cfi_def_cfa_register rbp
Ltmp28:
	lea	rdi, [rip + L___unnamed_3]
	mov	esi, 1
	mov	edx, 1
	call	_$sSS21_builtinStringLiteral17utf8CodeUnitCount7isASCIISSBp_BwBi1_tcfC
	pop	rbp
	ret
Ltmp29:
Lfunc_end7:
	.cfi_endproc

	.private_extern	_$ss5print_9separator10terminatoryypd_S2StFfA1_
	.globl	_$ss5print_9separator10terminatoryypd_S2StFfA1_
	.weak_definition	_$ss5print_9separator10terminatoryypd_S2StFfA1_
	.p2align	4, 0x90
_$ss5print_9separator10terminatoryypd_S2StFfA1_:
Lfunc_begin8:
	.loc	2 0 0
	.cfi_startproc
	push	rbp
	.cfi_def_cfa_offset 16
	.cfi_offset rbp, -16
	mov	rbp, rsp
	.cfi_def_cfa_register rbp
Ltmp30:
	lea	rdi, [rip + L___unnamed_4]
	mov	esi, 1
	mov	edx, 1
	call	_$sSS21_builtinStringLiteral17utf8CodeUnitCount7isASCIISSBp_BwBi1_tcfC
	pop	rbp
	ret
Ltmp31:
Lfunc_end8:
	.cfi_endproc

	.private_extern	_$sSZsE8isSignedSbvgZSi_Tgq5
	.globl	_$sSZsE8isSignedSbvgZSi_Tgq5
	.weak_definition	_$sSZsE8isSignedSbvgZSi_Tgq5
	.p2align	4, 0x90
_$sSZsE8isSignedSbvgZSi_Tgq5:
Lfunc_begin9:
	.loc	2 0 0
	.cfi_startproc
	push	rbp
	.cfi_def_cfa_offset 16
	.cfi_offset rbp, -16
	mov	rbp, rsp
	.cfi_def_cfa_register rbp
	mov	al, 1
Ltmp32:
	pop	rbp
	ret
Ltmp33:
Lfunc_end9:
	.cfi_endproc

	.private_extern	_$sS2iSzsWl
	.globl	_$sS2iSzsWl
	.weak_definition	_$sS2iSzsWl
	.p2align	4, 0x90
_$sS2iSzsWl:
Lfunc_begin10:
	.loc	2 0 0
	.cfi_startproc
	push	rax
	.cfi_def_cfa_offset 16
Ltmp34:
	mov	rax, qword ptr [rip + _$sS2iSzsWL]
	cmp	rax, 0
	mov	qword ptr [rsp], rax
	jne	LBB10_2
	mov	rdi, qword ptr [rip + _$sSiSzsMc@GOTPCREL]
	mov	rsi, qword ptr [rip + _$sSiN@GOTPCREL]
	call	_swift_getWitnessTable
	mov	rcx, rax
	mov	qword ptr [rip + _$sS2iSzsWL], rax
	mov	qword ptr [rsp], rcx
LBB10_2:
	mov	rax, qword ptr [rsp]
	pop	rcx
	ret
Ltmp35:
Lfunc_end10:
	.cfi_endproc

	.private_extern	_$sSa12_endMutationyyF
	.globl	_$sSa12_endMutationyyF
	.weak_definition	_$sSa12_endMutationyyF
	.p2align	4, 0x90
_$sSa12_endMutationyyF:
Lfunc_begin11:
	.loc	2 0 0
	.cfi_startproc
	push	rbp
	.cfi_def_cfa_offset 16
	.cfi_offset rbp, -16
	mov	rbp, rsp
	.cfi_def_cfa_register rbp
Ltmp36:
	pop	rbp
	ret
Ltmp37:
Lfunc_end11:
	.cfi_endproc

	.private_extern	_$s6stack35bytesSivp
	.globl	_$s6stack35bytesSivp
.zerofill __DATA,__common,_$s6stack35bytesSivp,8,3
	.private_extern	_$sS2is17FixedWidthIntegersWL
	.section	__DATA,__data
	.globl	_$sS2is17FixedWidthIntegersWL
	.weak_definition	_$sS2is17FixedWidthIntegersWL
	.p2align	3
_$sS2is17FixedWidthIntegersWL:
	.quad	0

	.private_extern	_$sS2iSZsWL
	.globl	_$sS2iSZsWL
	.weak_definition	_$sS2iSZsWL
	.p2align	3
_$sS2iSZsWL:
	.quad	0

	.private_extern	_$ss4Int8VABSzsWL
	.globl	_$ss4Int8VABSzsWL
	.weak_definition	_$ss4Int8VABSzsWL
	.p2align	3
_$ss4Int8VABSzsWL:
	.quad	0

	.section	__TEXT,__cstring,cstring_literals
	.p2align	4
L___unnamed_1:
	.asciz	"tuple bytes on stack:"

L___unnamed_2:
	.space	1

	.private_extern	_$sS2iSzsWL
	.section	__DATA,__data
	.globl	_$sS2iSzsWL
	.weak_definition	_$sS2iSzsWL
	.p2align	3
_$sS2iSzsWL:
	.quad	0

	.section	__TEXT,__swift5_entry,regular,no_dead_strip
	.p2align	2
l_entry_point:
	.long	_main-l_entry_point

	.private_extern	__swift_FORCE_LOAD_$_swiftDarwin_$_stack3
	.section	__DATA,__const
	.globl	__swift_FORCE_LOAD_$_swiftDarwin_$_stack3
	.weak_definition	__swift_FORCE_LOAD_$_swiftDarwin_$_stack3
	.p2align	3
__swift_FORCE_LOAD_$_swiftDarwin_$_stack3:
	.quad	__swift_FORCE_LOAD_$_swiftDarwin

	.section	__TEXT,__cstring,cstring_literals
L___unnamed_4:
	.asciz	"\n"

L___unnamed_3:
	.asciz	" "

	.private_extern	___swift_reflection_version
	.section	__TEXT,__const
	.globl	___swift_reflection_version
	.weak_definition	___swift_reflection_version
	.p2align	1
___swift_reflection_version:
	.short	3

	.no_dead_strip	_main
	.no_dead_strip	l_entry_point
	.no_dead_strip	__swift_FORCE_LOAD_$_swiftDarwin_$_stack3
	.no_dead_strip	___swift_reflection_version
	.linker_option "-lswiftDarwin"
	.linker_option "-lswiftCore"
	.linker_option "-lswiftSwiftOnoneSupport"
	.linker_option "-lobjc"
	.section	__DATA,__objc_imageinfo,regular,no_dead_strip
L_OBJC_IMAGE_INFO:
	.long	0
	.long	84150080
